Certificate:
    Data:
        Version: 3 (0x2)
        Serial Number: 8 (0x8)
        Signature Algorithm: sha256WithRSAEncryption
        Issuer: C=FR, ST=Paris, O=MA, CN=192.168.1.58
        Validity
            Not Before: Oct 18 16:51:02 2020 GMT
            Not After : Oct 18 16:51:02 2021 GMT
        Subject: C=FR, ST=Paris, O=MA, CN=relay-sa
        Subject Public Key Info:
            Public Key Algorithm: rsaEncryption
                RSA Public-Key: (2048 bit)
                Modulus:
                    00:ab:58:04:a2:5e:ba:e3:fd:cb:f8:7b:a8:b6:cd:
                    96:a9:ec:df:90:8f:b7:55:ca:6c:8b:12:77:82:d0:
                    8f:d7:a6:16:4d:59:85:88:dd:0c:e0:1e:f9:4f:bc:
                    f4:85:92:a8:97:15:7b:78:4d:1f:af:fe:f5:15:a8:
                    47:ef:35:9a:50:5c:1d:d4:c2:ae:47:7b:a3:7a:40:
                    38:13:ca:a8:87:45:e1:68:c4:9a:9b:69:44:84:f1:
                    6e:71:c6:c2:11:2e:2c:76:9b:9d:ff:89:4b:5e:f4:
                    38:a9:c1:83:86:e9:9b:f7:e4:c2:e9:8e:f0:e7:9b:
                    6f:9a:5f:4e:06:76:2c:22:c8:fb:ff:67:e6:9e:b6:
                    89:21:43:41:fd:21:9f:be:25:f5:5e:cc:a7:58:b4:
                    4c:72:65:89:2a:d7:f6:19:50:f8:6b:54:d0:f6:b9:
                    6d:98:f4:83:0a:2b:44:78:68:a1:ab:30:df:b9:a8:
                    27:6d:10:84:05:b8:17:3a:14:c3:b2:8d:76:53:e2:
                    b5:ff:af:56:e4:6d:c7:08:fc:9b:2d:0b:7c:e1:90:
                    55:c1:b4:9f:54:7e:2c:6d:3b:83:dc:4d:9d:4c:14:
                    b4:ab:08:2f:e7:b7:24:fb:aa:cd:71:f5:a3:a8:d8:
                    c8:df:38:42:39:82:e6:b1:db:b7:c4:0d:58:5a:50:
                    fc:a1
                Exponent: 65537 (0x10001)
        X509v3 extensions:
            X509v3 Basic Constraints: 
                CA:FALSE
            Netscape Comment: 
                OpenSSL Generated Certificate
            X509v3 Subject Key Identifier: 
                38:70:0F:92:EC:2C:D7:36:6C:42:29:CF:0E:94:6C:DE:24:F3:00:BF
            X509v3 Authority Key Identifier: 
                keyid:3F:C9:7B:87:87:91:D4:47:F6:CC:0B:21:65:06:FC:01:B2:BC:74:06

    Signature Algorithm: sha256WithRSAEncryption
         04:eb:f1:94:f0:a3:56:f6:c5:de:2f:2b:85:0e:8d:55:cc:85:
         38:3c:c4:ee:d2:7d:ff:44:4f:3f:16:c7:bf:47:a7:31:e7:19:
         4c:a5:19:67:20:26:c3:57:b4:32:d5:4a:62:d0:99:02:55:43:
         6c:88:95:79:23:fd:3a:bb:41:60:7e:ff:00:22:8e:1a:f7:c8:
         4b:f3:76:fa:1c:0c:7e:9d:75:5a:fc:d0:a9:93:9c:67:1f:d4:
         a2:dd:64:62:47:ec:4a:6a:95:23:06:99:87:90:df:f3:ea:26:
         31:5b:d8:47:79:33:2b:48:da:cd:c4:5b:ee:6a:9d:55:c9:6c:
         6b:4c:f8:f6:95:24:ff:0b:36:03:20:68:8c:58:7e:f2:51:68:
         70:bd:0e:6a:cd:56:68:3b:9b:68:5e:9f:86:23:4d:76:e4:db:
         11:6f:fe:ad:ee:d4:95:4f:26:8a:c3:84:ca:b2:db:85:2d:24:
         9b:bc:b6:1c:cc:49:ef:9c:1f:35:b7:58:ed:03:45:18:a4:a7:
         9a:6e:30:36:7b:6a:39:73:76:6d:bf:61:74:54:70:6d:a4:43:
         94:1f:51:6a:e9:bc:0f:af:01:9b:8a:f6:f8:e8:60:22:64:23:
         ee:4b:57:3b:8d:72:60:5f:b2:6f:a0:c5:09:3a:67:9a:f1:a4:
         46:bf:af:bb
-----BEGIN CERTIFICATE-----
MIIDdDCCAlygAwIBAgIBCDANBgkqhkiG9w0BAQsFADBBMQswCQYDVQQGEwJGUjEO
MAwGA1UECAwFUGFyaXMxCzAJBgNVBAoMAk1BMRUwEwYDVQQDDAwxOTIuMTY4LjEu
NTgwHhcNMjAxMDE4MTY1MTAyWhcNMjExMDE4MTY1MTAyWjA9MQswCQYDVQQGEwJG
UjEOMAwGA1UECAwFUGFyaXMxCzAJBgNVBAoMAk1BMREwDwYDVQQDDAhyZWxheS1z
YTCCASIwDQYJKoZIhvcNAQEBBQADggEPADCCAQoCggEBAKtYBKJeuuP9y/h7qLbN
lqns35CPt1XKbIsSd4LQj9emFk1ZhYjdDOAe+U+89IWSqJcVe3hNH6/+9RWoR+81
mlBcHdTCrkd7o3pAOBPKqIdF4WjEmptpRITxbnHGwhEuLHabnf+JS170OKnBg4bp
m/fkwumO8Oebb5pfTgZ2LCLI+/9n5p62iSFDQf0hn74l9V7Mp1i0THJliSrX9hlQ
+GtU0Pa5bZj0gworRHhooasw37moJ20QhAW4FzoUw7KNdlPitf+vVuRtxwj8my0L
fOGQVcG0n1R+LG07g9xNnUwUtKsIL+e3JPuqzXH1o6jYyN84QjmC5rHbt8QNWFpQ
/KECAwEAAaN7MHkwCQYDVR0TBAIwADAsBglghkgBhvhCAQ0EHxYdT3BlblNTTCBH
ZW5lcmF0ZWQgQ2VydGlmaWNhdGUwHQYDVR0OBBYEFDhwD5LsLNc2bEIpzw6UbN4k
8wC/MB8GA1UdIwQYMBaAFD/Je4eHkdRH9swLIWUG/AGyvHQGMA0GCSqGSIb3DQEB
CwUAA4IBAQAE6/GU8KNW9sXeLyuFDo1VzIU4PMTu0n3/RE8/Fse/R6cx5xlMpRln
ICbDV7Qy1Upi0JkCVUNsiJV5I/06u0Fgfv8AIo4a98hL83b6HAx+nXVa/NCpk5xn
H9Si3WRiR+xKapUjBpmHkN/z6iYxW9hHeTMrSNrNxFvuap1VyWxrTPj2lST/CzYD
IGiMWH7yUWhwvQ5qzVZoO5toXp+GI0125NsRb/6t7tSVTyaKw4TKstuFLSSbvLYc
zEnvnB81t1jtA0UYpKeabjA2e2o5c3Ztv2F0VHBtpEOUH1Fq6bwPrwGbivb46GAi
ZCPuS1c7jXJgX7JvoMUJOmea8aRGv6+7
-----END CERTIFICATE-----
