Certificate:
    Data:
        Version: 3 (0x2)
        Serial Number: 7 (0x7)
        Signature Algorithm: sha256WithRSAEncryption
        Issuer: C=FR, ST=Paris, O=MA, CN=192.168.1.58
        Validity
            Not Before: Oct 18 16:50:24 2020 GMT
            Not After : Oct 18 16:50:24 2021 GMT
        Subject: C=FR, ST=Paris, O=MA, CN=relay-sl
        Subject Public Key Info:
            Public Key Algorithm: rsaEncryption
                RSA Public-Key: (2048 bit)
                Modulus:
                    00:c3:0a:b9:66:33:d6:9d:71:2c:6d:b8:06:2c:35:
                    e2:4e:1e:b3:64:16:0d:02:13:45:69:13:10:4f:d8:
                    28:e3:68:ac:45:8c:49:ba:c2:13:42:95:c5:ac:ab:
                    2c:99:09:08:85:3c:72:14:9c:05:82:b5:0f:d5:63:
                    72:91:1f:a5:b9:ea:c3:0e:a3:f5:97:f8:a0:00:b7:
                    6d:29:b3:29:4f:d8:45:88:34:b5:f4:3c:28:d0:2c:
                    af:d2:8e:be:39:65:d1:4c:39:51:ee:39:d1:ee:96:
                    34:a3:e7:6f:13:f1:50:f3:b3:43:bb:77:2a:d9:f8:
                    bb:21:7f:61:5e:9f:ce:33:99:79:05:29:e6:ae:c0:
                    93:0c:40:f4:05:b3:d9:54:b5:9e:9e:b9:e8:dc:b2:
                    29:05:aa:1f:13:33:d6:9d:3b:7e:7d:6d:bb:13:b2:
                    e9:a6:23:03:d1:41:d0:38:6b:ad:81:56:45:24:69:
                    d6:aa:9e:22:52:8f:ba:d1:60:ff:4c:03:2b:ab:7a:
                    c7:66:54:bd:13:a4:d2:6c:39:e3:97:72:d6:5e:6f:
                    20:ba:56:80:c3:b5:c0:5b:66:76:94:f6:fb:be:1b:
                    0c:81:ec:2d:b6:0f:88:38:f9:0d:c1:22:ac:66:05:
                    85:d5:93:4c:40:8b:20:33:42:31:74:b2:19:1e:25:
                    70:85
                Exponent: 65537 (0x10001)
        X509v3 extensions:
            X509v3 Basic Constraints: 
                CA:FALSE
            Netscape Comment: 
                OpenSSL Generated Certificate
            X509v3 Subject Key Identifier: 
                CA:37:EE:1D:9F:97:BC:EA:D6:1A:A1:BB:B2:55:45:91:9B:C7:39:50
            X509v3 Authority Key Identifier: 
                keyid:3F:C9:7B:87:87:91:D4:47:F6:CC:0B:21:65:06:FC:01:B2:BC:74:06

    Signature Algorithm: sha256WithRSAEncryption
         57:58:19:67:9b:d4:1a:df:09:e2:7b:83:bf:18:29:aa:7e:77:
         ca:37:8b:46:3d:f6:c4:d3:ee:50:e6:64:15:33:f2:ed:17:86:
         14:29:a0:66:50:dd:d2:d2:00:9c:6f:a7:9a:6a:79:4c:50:88:
         69:c3:9f:15:5e:52:93:43:c9:5a:b9:cd:8c:36:c9:96:43:27:
         f1:59:27:26:a2:5a:8b:af:67:7c:70:17:d4:4f:31:5f:4d:cf:
         97:b0:03:47:7a:d6:3c:09:39:7f:47:3d:30:e7:7f:06:5b:d9:
         a1:b4:56:90:64:a3:ea:c0:ac:7c:29:b8:68:32:ef:a0:17:f8:
         ec:e3:7f:26:93:68:78:bd:43:0f:c7:e6:68:cd:d3:82:6f:56:
         70:81:c8:31:1a:d1:46:5e:6d:d0:e3:f4:93:5c:45:60:3c:72:
         fa:8f:d7:a2:aa:1b:d2:5a:12:23:70:cb:df:a2:bf:43:7b:65:
         9a:13:db:76:25:39:2e:0f:6b:8d:de:06:8c:4a:0a:36:89:e0:
         fa:46:78:49:03:ad:9d:d2:4d:1c:11:2a:2e:1a:ca:ac:96:fb:
         85:be:9b:fe:ae:54:63:1e:d9:f6:c0:b1:cf:6a:01:53:a8:1d:
         84:48:25:75:d7:a2:a1:bd:a8:95:4e:5d:ca:5e:44:ce:a6:e1:
         66:d8:83:df
-----BEGIN CERTIFICATE-----
MIIDdDCCAlygAwIBAgIBBzANBgkqhkiG9w0BAQsFADBBMQswCQYDVQQGEwJGUjEO
MAwGA1UECAwFUGFyaXMxCzAJBgNVBAoMAk1BMRUwEwYDVQQDDAwxOTIuMTY4LjEu
NTgwHhcNMjAxMDE4MTY1MDI0WhcNMjExMDE4MTY1MDI0WjA9MQswCQYDVQQGEwJG
UjEOMAwGA1UECAwFUGFyaXMxCzAJBgNVBAoMAk1BMREwDwYDVQQDDAhyZWxheS1z
bDCCASIwDQYJKoZIhvcNAQEBBQADggEPADCCAQoCggEBAMMKuWYz1p1xLG24Biw1
4k4es2QWDQITRWkTEE/YKONorEWMSbrCE0KVxayrLJkJCIU8chScBYK1D9VjcpEf
pbnqww6j9Zf4oAC3bSmzKU/YRYg0tfQ8KNAsr9KOvjll0Uw5Ue450e6WNKPnbxPx
UPOzQ7t3Ktn4uyF/YV6fzjOZeQUp5q7AkwxA9AWz2VS1np656NyyKQWqHxMz1p07
fn1tuxOy6aYjA9FB0DhrrYFWRSRp1qqeIlKPutFg/0wDK6t6x2ZUvROk0mw545dy
1l5vILpWgMO1wFtmdpT2+74bDIHsLbYPiDj5DcEirGYFhdWTTECLIDNCMXSyGR4l
cIUCAwEAAaN7MHkwCQYDVR0TBAIwADAsBglghkgBhvhCAQ0EHxYdT3BlblNTTCBH
ZW5lcmF0ZWQgQ2VydGlmaWNhdGUwHQYDVR0OBBYEFMo37h2fl7zq1hqhu7JVRZGb
xzlQMB8GA1UdIwQYMBaAFD/Je4eHkdRH9swLIWUG/AGyvHQGMA0GCSqGSIb3DQEB
CwUAA4IBAQBXWBlnm9Qa3wnie4O/GCmqfnfKN4tGPfbE0+5Q5mQVM/LtF4YUKaBm
UN3S0gCcb6eaanlMUIhpw58VXlKTQ8lauc2MNsmWQyfxWScmolqLr2d8cBfUTzFf
Tc+XsANHetY8CTl/Rz0w538GW9mhtFaQZKPqwKx8KbhoMu+gF/js438mk2h4vUMP
x+ZozdOCb1ZwgcgxGtFGXm3Q4/STXEVgPHL6j9eiqhvSWhIjcMvfor9De2WaE9t2
JTkuD2uN3gaMSgo2ieD6RnhJA62d0k0cESouGsqslvuFvpv+rlRjHtn2wLHPagFT
qB2ESCV116KhvaiVTl3KXkTOpuFm2IPf
-----END CERTIFICATE-----
