Certificate:
    Data:
        Version: 3 (0x2)
        Serial Number: 11 (0xb)
        Signature Algorithm: sha256WithRSAEncryption
        Issuer: C=FR, ST=Paris, O=MA, CN=192.168.1.58
        Validity
            Not Before: Oct 18 16:53:17 2020 GMT
            Not After : Oct 18 16:53:17 2021 GMT
        Subject: C=FR, ST=Paris, O=MA, CN=relay-sb
        Subject Public Key Info:
            Public Key Algorithm: rsaEncryption
                RSA Public-Key: (2048 bit)
                Modulus:
                    00:c1:2e:21:63:48:76:42:08:20:78:4f:ac:27:06:
                    ae:d9:7e:2c:a5:37:33:ad:30:ac:fd:d1:16:78:61:
                    2b:a5:3b:dd:32:8b:c3:f6:f2:70:fd:8f:4a:d8:f9:
                    d2:a9:4b:c4:b8:bf:71:ad:ad:72:e6:a0:05:4b:1c:
                    0d:20:f1:84:a6:3f:0d:cc:3b:5a:86:c9:de:52:e1:
                    66:26:a2:54:90:e3:3c:71:08:a1:1a:8b:70:77:ad:
                    e8:b7:f6:e1:6e:12:2c:03:00:ca:b7:3d:40:0a:10:
                    53:77:03:a1:6c:59:86:49:c0:7a:ab:31:80:4a:c3:
                    f5:f3:79:bb:c1:11:97:f2:71:9a:3d:66:f1:af:7a:
                    66:b0:0a:65:82:f0:a2:6f:9e:ab:02:9c:52:92:32:
                    91:6d:9f:dc:04:da:5c:75:ca:fb:24:6a:5f:d9:dd:
                    3c:01:a8:53:f9:2d:ad:86:0d:da:dd:15:09:ea:0a:
                    97:c3:39:a5:ed:cc:b4:c8:26:c7:58:4d:ba:f2:cb:
                    d7:b5:84:e8:a0:a6:ab:62:fc:ac:5d:22:4f:65:ae:
                    63:ab:30:93:89:49:2c:12:e1:7e:e2:6c:b8:05:6b:
                    dc:e0:7c:b7:07:d5:fa:0d:84:16:21:b8:56:20:46:
                    e3:e9:46:fd:57:2e:eb:16:5e:2c:9d:2f:de:e3:06:
                    22:97
                Exponent: 65537 (0x10001)
        X509v3 extensions:
            X509v3 Basic Constraints: 
                CA:FALSE
            Netscape Comment: 
                OpenSSL Generated Certificate
            X509v3 Subject Key Identifier: 
                0C:A4:BB:D5:89:B5:E8:BE:4A:6C:11:30:7F:2E:BB:EC:53:DE:AB:14
            X509v3 Authority Key Identifier: 
                keyid:3F:C9:7B:87:87:91:D4:47:F6:CC:0B:21:65:06:FC:01:B2:BC:74:06

    Signature Algorithm: sha256WithRSAEncryption
         81:2b:e7:e2:5e:1a:ac:fe:77:b2:6f:33:79:44:ef:20:6f:12:
         45:58:7f:35:0c:46:a4:ef:17:6a:ae:86:02:54:54:02:73:5a:
         dd:77:04:68:9a:d8:cb:62:4f:e9:7d:5d:46:01:6c:be:8f:7f:
         31:57:e7:7b:08:27:10:41:4c:c2:f4:14:bd:d1:b1:a4:94:da:
         bb:21:a7:9d:fe:4e:5b:77:bc:2a:e6:ff:90:75:81:3f:18:4e:
         c6:6b:f7:9a:91:50:17:9c:c2:d6:da:de:02:27:78:cc:e4:76:
         3f:4b:76:63:5c:36:d7:d3:c0:9b:b3:2c:d8:c4:de:cc:f2:41:
         04:93:b5:86:32:82:8e:8c:fc:19:dd:7e:93:43:70:fe:62:93:
         c9:d3:67:ca:17:6e:53:7b:18:28:4a:52:f9:dc:4f:7a:3d:97:
         1b:5d:af:aa:9c:4a:a4:ef:aa:a3:ee:12:36:39:30:d1:1a:c9:
         bd:1c:00:43:45:16:8b:6f:82:d2:ce:b6:c8:54:08:f8:b4:14:
         57:58:06:03:94:74:02:67:51:ec:24:ba:c2:35:5c:6c:d8:19:
         71:24:ce:65:fb:15:eb:c9:a1:71:e6:0a:d8:96:ff:b7:fa:58:
         07:2a:73:19:1c:b2:0e:7f:59:00:53:22:18:e9:7c:86:55:aa:
         82:82:a1:02
-----BEGIN CERTIFICATE-----
MIIDdDCCAlygAwIBAgIBCzANBgkqhkiG9w0BAQsFADBBMQswCQYDVQQGEwJGUjEO
MAwGA1UECAwFUGFyaXMxCzAJBgNVBAoMAk1BMRUwEwYDVQQDDAwxOTIuMTY4LjEu
NTgwHhcNMjAxMDE4MTY1MzE3WhcNMjExMDE4MTY1MzE3WjA9MQswCQYDVQQGEwJG
UjEOMAwGA1UECAwFUGFyaXMxCzAJBgNVBAoMAk1BMREwDwYDVQQDDAhyZWxheS1z
YjCCASIwDQYJKoZIhvcNAQEBBQADggEPADCCAQoCggEBAMEuIWNIdkIIIHhPrCcG
rtl+LKU3M60wrP3RFnhhK6U73TKLw/bycP2PStj50qlLxLi/ca2tcuagBUscDSDx
hKY/Dcw7WobJ3lLhZiaiVJDjPHEIoRqLcHet6Lf24W4SLAMAyrc9QAoQU3cDoWxZ
hknAeqsxgErD9fN5u8ERl/Jxmj1m8a96ZrAKZYLwom+eqwKcUpIykW2f3ATaXHXK
+yRqX9ndPAGoU/ktrYYN2t0VCeoKl8M5pe3MtMgmx1hNuvLL17WE6KCmq2L8rF0i
T2WuY6swk4lJLBLhfuJsuAVr3OB8twfV+g2EFiG4ViBG4+lG/Vcu6xZeLJ0v3uMG
IpcCAwEAAaN7MHkwCQYDVR0TBAIwADAsBglghkgBhvhCAQ0EHxYdT3BlblNTTCBH
ZW5lcmF0ZWQgQ2VydGlmaWNhdGUwHQYDVR0OBBYEFAyku9WJtei+SmwRMH8uu+xT
3qsUMB8GA1UdIwQYMBaAFD/Je4eHkdRH9swLIWUG/AGyvHQGMA0GCSqGSIb3DQEB
CwUAA4IBAQCBK+fiXhqs/neybzN5RO8gbxJFWH81DEak7xdqroYCVFQCc1rddwRo
mtjLYk/pfV1GAWy+j38xV+d7CCcQQUzC9BS90bGklNq7Iaed/k5bd7wq5v+QdYE/
GE7Ga/eakVAXnMLW2t4CJ3jM5HY/S3ZjXDbX08CbsyzYxN7M8kEEk7WGMoKOjPwZ
3X6TQ3D+YpPJ02fKF25TexgoSlL53E96PZcbXa+qnEqk76qj7hI2OTDRGsm9HABD
RRaLb4LSzrbIVAj4tBRXWAYDlHQCZ1HsJLrCNVxs2BlxJM5l+xXryaFx5grYlv+3
+lgHKnMZHLIOf1kAUyIY6XyGVaqCgqEC
-----END CERTIFICATE-----
