Certificate:
    Data:
        Version: 3 (0x2)
        Serial Number: 1 (0x1)
        Signature Algorithm: sha256WithRSAEncryption
        Issuer: C=FR, ST=Paris, O=MA, CN=192.168.1.58
        Validity
            Not Before: Oct 18 15:10:31 2020 GMT
            Not After : Oct 18 15:10:31 2021 GMT
        Subject: C=FR, ST=Paris, O=MA, CN=192.168.1.57
        Subject Public Key Info:
            Public Key Algorithm: rsaEncryption
                RSA Public-Key: (2048 bit)
                Modulus:
                    00:d1:25:f3:af:db:8f:07:bd:7c:27:00:26:20:56:
                    10:62:33:b0:32:56:6c:08:43:d6:7f:78:a3:a0:5d:
                    60:35:61:de:39:3b:d3:ab:a3:90:34:94:6b:ef:97:
                    3c:fc:1c:cc:2b:3c:f2:09:d2:d2:c0:1d:9d:7c:d1:
                    65:60:66:78:e3:87:44:ff:76:24:51:3f:c2:12:07:
                    5b:f9:99:aa:48:b5:b0:b1:fa:c5:fa:4a:85:ee:82:
                    17:45:1d:0b:b5:db:df:0f:38:ef:da:19:14:9e:26:
                    8d:23:8f:67:36:88:66:c7:91:a0:d7:c9:a7:30:82:
                    ff:a2:4f:52:0e:c3:0d:ba:57:a4:14:db:59:c5:07:
                    3e:de:8d:a9:77:02:94:63:79:9b:b0:72:7c:6d:04:
                    e3:23:73:c1:55:59:d5:39:c0:c8:86:07:e8:54:d5:
                    60:24:f2:36:9c:eb:c5:6d:29:36:11:b4:14:96:b4:
                    18:3c:50:2b:68:32:40:f4:0e:68:8e:15:5d:68:54:
                    9e:73:9d:a4:27:00:83:f8:49:5a:4a:f5:1d:22:06:
                    5b:b3:f2:48:41:c3:47:56:67:15:44:67:49:ce:c3:
                    b8:36:0e:be:2b:f2:b1:8b:2e:08:11:ac:5a:af:cb:
                    73:63:40:42:20:dd:20:6e:6d:e7:af:e8:5b:56:d4:
                    9a:c9
                Exponent: 65537 (0x10001)
        X509v3 extensions:
            X509v3 Basic Constraints: 
                CA:FALSE
            Netscape Comment: 
                OpenSSL Generated Certificate
            X509v3 Subject Key Identifier: 
                F1:E9:EF:F9:49:4E:CA:01:C1:0C:8D:C2:2E:BA:04:02:7A:27:BF:76
            X509v3 Authority Key Identifier: 
                keyid:3F:C9:7B:87:87:91:D4:47:F6:CC:0B:21:65:06:FC:01:B2:BC:74:06

    Signature Algorithm: sha256WithRSAEncryption
         06:72:31:60:0a:7e:e1:2d:04:b3:53:02:76:12:3b:86:9a:e5:
         dd:69:c3:9f:e7:35:55:5e:37:ec:61:cb:fa:68:43:2f:65:ff:
         65:23:01:99:21:e3:4a:c3:83:62:f0:fb:2c:7a:5b:16:56:8c:
         07:0e:c6:1c:17:91:f8:03:13:67:97:4c:a7:11:fc:ef:49:3b:
         4d:38:1e:f7:8e:0c:30:59:e8:c6:2c:86:7f:5d:65:17:92:ac:
         28:50:56:55:d4:14:54:c9:77:68:98:c7:66:99:28:f3:17:c0:
         82:55:fd:df:c2:33:a3:e1:fa:69:33:ca:87:09:7e:df:e7:e4:
         cb:a9:cb:3b:4b:f9:22:30:23:45:6a:2a:20:da:ed:86:f9:5d:
         b9:17:7f:ba:67:a0:e0:e3:c4:c1:fb:0a:8b:90:29:5c:8f:c8:
         fc:8f:69:4e:e7:71:9d:c7:23:7e:f1:b1:d8:c1:f0:17:c9:6b:
         f3:34:21:f2:42:15:4f:87:0c:0d:b2:68:bd:ee:c2:88:3a:e3:
         57:b2:0c:df:d6:34:78:f6:0c:e8:bf:d2:7d:11:e8:1c:84:14:
         c0:2f:08:ee:c1:dc:cc:07:43:4a:fb:7c:1c:ee:79:cc:73:0a:
         d3:56:a4:80:48:5d:45:3c:ee:70:b3:41:4d:71:4a:6d:cc:cd:
         bf:60:c2:48
-----BEGIN CERTIFICATE-----
MIIDeDCCAmCgAwIBAgIBATANBgkqhkiG9w0BAQsFADBBMQswCQYDVQQGEwJGUjEO
MAwGA1UECAwFUGFyaXMxCzAJBgNVBAoMAk1BMRUwEwYDVQQDDAwxOTIuMTY4LjEu
NTgwHhcNMjAxMDE4MTUxMDMxWhcNMjExMDE4MTUxMDMxWjBBMQswCQYDVQQGEwJG
UjEOMAwGA1UECAwFUGFyaXMxCzAJBgNVBAoMAk1BMRUwEwYDVQQDDAwxOTIuMTY4
LjEuNTcwggEiMA0GCSqGSIb3DQEBAQUAA4IBDwAwggEKAoIBAQDRJfOv248HvXwn
ACYgVhBiM7AyVmwIQ9Z/eKOgXWA1Yd45O9Oro5A0lGvvlzz8HMwrPPIJ0tLAHZ18
0WVgZnjjh0T/diRRP8ISB1v5mapItbCx+sX6SoXughdFHQu1298POO/aGRSeJo0j
j2c2iGbHkaDXyacwgv+iT1IOww26V6QU21nFBz7ejal3ApRjeZuwcnxtBOMjc8FV
WdU5wMiGB+hU1WAk8jac68VtKTYRtBSWtBg8UCtoMkD0DmiOFV1oVJ5znaQnAIP4
SVpK9R0iBluz8khBw0dWZxVEZ0nOw7g2Dr4r8rGLLggRrFqvy3NjQEIg3SBubeev
6FtW1JrJAgMBAAGjezB5MAkGA1UdEwQCMAAwLAYJYIZIAYb4QgENBB8WHU9wZW5T
U0wgR2VuZXJhdGVkIENlcnRpZmljYXRlMB0GA1UdDgQWBBTx6e/5SU7KAcEMjcIu
ugQCeie/djAfBgNVHSMEGDAWgBQ/yXuHh5HUR/bMCyFlBvwBsrx0BjANBgkqhkiG
9w0BAQsFAAOCAQEABnIxYAp+4S0Es1MCdhI7hprl3WnDn+c1VV437GHL+mhDL2X/
ZSMBmSHjSsODYvD7LHpbFlaMBw7GHBeR+AMTZ5dMpxH870k7TTge944MMFnoxiyG
f11lF5KsKFBWVdQUVMl3aJjHZpko8xfAglX938Izo+H6aTPKhwl+3+fky6nLO0v5
IjAjRWoqINrthvlduRd/umeg4OPEwfsKi5ApXI/I/I9pTudxnccjfvGx2MHwF8lr
8zQh8kIVT4cMDbJove7CiDrjV7IM39Y0ePYM6L/SfRHoHIQUwC8I7sHczAdDSvt8
HO55zHMK01akgEhdRTzucLNBTXFKbczNv2DCSA==
-----END CERTIFICATE-----
