Certificate:
    Data:
        Version: 3 (0x2)
        Serial Number: 2 (0x2)
        Signature Algorithm: sha256WithRSAEncryption
        Issuer: C=FR, ST=Paris, O=MA, CN=192.168.1.58
        Validity
            Not Before: Oct 18 15:11:05 2020 GMT
            Not After : Oct 18 15:11:05 2021 GMT
        Subject: C=FR, ST=Paris, O=MA, CN=192.168.1.47
        Subject Public Key Info:
            Public Key Algorithm: rsaEncryption
                RSA Public-Key: (2048 bit)
                Modulus:
                    00:af:50:35:bb:54:75:5f:22:cb:68:73:17:fb:3a:
                    21:d8:4f:5f:20:e7:cd:3b:f3:5f:d4:2c:ce:a5:e5:
                    bc:a9:87:02:db:e2:75:2a:3c:cb:b2:9c:69:ce:55:
                    a4:38:a4:aa:bb:39:37:cb:35:dd:25:e0:5b:62:a6:
                    df:80:a2:21:bd:8b:28:b0:18:8a:29:9b:53:73:41:
                    56:8b:01:d8:ca:2a:e3:eb:cb:72:f7:ed:ef:57:cf:
                    bb:cf:69:47:5f:90:b4:d7:bb:35:df:96:28:5a:e9:
                    3b:6d:3f:b8:ac:51:cf:39:65:93:cf:81:ce:d2:b7:
                    ba:5a:e0:11:8c:f5:d2:0e:0e:70:fe:51:dc:4c:07:
                    ac:f0:fa:38:c4:9c:83:a0:c0:4c:3e:b3:ef:74:de:
                    f2:0b:db:6e:e3:57:90:06:02:c2:13:88:cf:74:58:
                    7e:f1:f0:e0:4d:3e:de:30:fd:58:d8:01:c6:2f:fc:
                    5f:fc:63:a3:fa:e8:af:7f:ad:c6:a1:a2:8e:8f:2e:
                    4e:97:9e:0a:0e:4b:bd:85:96:b7:c7:01:ec:9a:83:
                    e5:0f:78:c9:ae:18:16:bf:5c:ca:01:18:10:5c:ba:
                    7e:63:b7:f2:d9:56:2a:9a:f1:76:75:53:01:0a:e5:
                    7c:c1:37:22:f7:c9:2a:e6:e9:d1:b4:1f:18:c6:84:
                    48:79
                Exponent: 65537 (0x10001)
        X509v3 extensions:
            X509v3 Basic Constraints: 
                CA:FALSE
            Netscape Comment: 
                OpenSSL Generated Certificate
            X509v3 Subject Key Identifier: 
                93:01:94:54:53:BB:11:E5:1B:36:71:E0:B5:A2:1B:00:EB:AC:15:D2
            X509v3 Authority Key Identifier: 
                keyid:3F:C9:7B:87:87:91:D4:47:F6:CC:0B:21:65:06:FC:01:B2:BC:74:06

    Signature Algorithm: sha256WithRSAEncryption
         cb:1c:19:c1:33:17:b6:39:61:1c:20:dd:50:2c:62:dd:44:b4:
         3c:3c:2f:68:5e:fe:07:4f:d4:c6:5b:8b:25:2b:95:aa:1d:01:
         7c:5e:6d:9c:bb:24:31:85:b2:6e:f5:a1:00:1d:94:0e:20:51:
         99:39:7f:c5:0b:df:b2:2b:f9:f0:84:7d:06:1f:6b:cf:9b:04:
         8d:4c:fd:2f:36:e1:66:b0:ca:a0:aa:70:f6:18:d3:0c:25:03:
         b9:61:a0:29:b3:3c:17:ee:b3:33:9c:97:1f:87:26:e1:6c:0d:
         65:90:f2:cc:dd:5d:e3:f5:9b:06:81:03:b3:71:14:82:ff:91:
         0d:ca:28:0b:29:8b:ac:7e:a2:74:26:cb:d3:64:73:85:83:1a:
         6f:d7:72:3e:f3:53:14:b4:de:7f:12:64:2b:03:c2:95:31:75:
         72:17:1c:7b:63:3b:50:bc:67:3b:8d:1a:e2:d0:96:97:2a:8f:
         6f:f5:8a:6a:bd:e2:4a:5f:c8:b9:06:d1:82:a8:b7:84:8e:d0:
         18:4d:44:dc:3d:75:11:7b:39:86:17:50:0a:58:2c:60:d8:41:
         28:00:4e:df:dc:f7:c8:07:c5:49:2d:af:61:50:72:bb:6c:b4:
         93:e5:13:e8:08:6e:7b:50:4a:b3:40:d8:bc:95:d4:d2:b5:2d:
         cf:50:05:ed
-----BEGIN CERTIFICATE-----
MIIDeDCCAmCgAwIBAgIBAjANBgkqhkiG9w0BAQsFADBBMQswCQYDVQQGEwJGUjEO
MAwGA1UECAwFUGFyaXMxCzAJBgNVBAoMAk1BMRUwEwYDVQQDDAwxOTIuMTY4LjEu
NTgwHhcNMjAxMDE4MTUxMTA1WhcNMjExMDE4MTUxMTA1WjBBMQswCQYDVQQGEwJG
UjEOMAwGA1UECAwFUGFyaXMxCzAJBgNVBAoMAk1BMRUwEwYDVQQDDAwxOTIuMTY4
LjEuNDcwggEiMA0GCSqGSIb3DQEBAQUAA4IBDwAwggEKAoIBAQCvUDW7VHVfIsto
cxf7OiHYT18g580781/ULM6l5byphwLb4nUqPMuynGnOVaQ4pKq7OTfLNd0l4Fti
pt+AoiG9iyiwGIopm1NzQVaLAdjKKuPry3L37e9Xz7vPaUdfkLTXuzXfliha6Ttt
P7isUc85ZZPPgc7St7pa4BGM9dIODnD+UdxMB6zw+jjEnIOgwEw+s+903vIL227j
V5AGAsITiM90WH7x8OBNPt4w/VjYAcYv/F/8Y6P66K9/rcahoo6PLk6XngoOS72F
lrfHAeyag+UPeMmuGBa/XMoBGBBcun5jt/LZViqa8XZ1UwEK5XzBNyL3ySrm6dG0
HxjGhEh5AgMBAAGjezB5MAkGA1UdEwQCMAAwLAYJYIZIAYb4QgENBB8WHU9wZW5T
U0wgR2VuZXJhdGVkIENlcnRpZmljYXRlMB0GA1UdDgQWBBSTAZRUU7sR5Rs2ceC1
ohsA66wV0jAfBgNVHSMEGDAWgBQ/yXuHh5HUR/bMCyFlBvwBsrx0BjANBgkqhkiG
9w0BAQsFAAOCAQEAyxwZwTMXtjlhHCDdUCxi3US0PDwvaF7+B0/UxluLJSuVqh0B
fF5tnLskMYWybvWhAB2UDiBRmTl/xQvfsiv58IR9Bh9rz5sEjUz9LzbhZrDKoKpw
9hjTDCUDuWGgKbM8F+6zM5yXH4cm4WwNZZDyzN1d4/WbBoEDs3EUgv+RDcooCymL
rH6idCbL02RzhYMab9dyPvNTFLTefxJkKwPClTF1chcce2M7ULxnO40a4tCWlyqP
b/WKar3iSl/IuQbRgqi3hI7QGE1E3D11EXs5hhdQClgsYNhBKABO39z3yAfFSS2v
YVByu2y0k+UT6Ahue1BKs0DYvJXU0rUtz1AF7Q==
-----END CERTIFICATE-----
