Certificate:
    Data:
        Version: 3 (0x2)
        Serial Number: 3 (0x3)
        Signature Algorithm: sha256WithRSAEncryption
        Issuer: C=FR, ST=Paris, O=MA, CN=192.168.1.58
        Validity
            Not Before: Oct 18 15:11:41 2020 GMT
            Not After : Oct 18 15:11:41 2021 GMT
        Subject: C=FR, ST=Paris, O=MA, CN=192.168.1.46
        Subject Public Key Info:
            Public Key Algorithm: rsaEncryption
                RSA Public-Key: (2048 bit)
                Modulus:
                    00:a6:68:9a:e0:44:5a:7a:db:2f:4a:ea:78:fa:99:
                    45:fc:df:dc:2f:66:1c:49:28:be:8a:66:df:d8:fa:
                    1c:81:81:57:99:2c:ad:1f:c3:6b:96:5a:f6:00:3b:
                    61:76:e5:60:3e:cb:d2:e2:24:ff:e8:a5:dd:22:3a:
                    a8:a1:0c:7d:67:af:51:13:d2:34:3b:ae:ce:9c:3f:
                    67:21:d8:12:e4:96:c6:16:6c:a3:e0:94:46:9f:c1:
                    12:89:39:be:fd:ea:62:17:74:2e:b9:5f:ed:d5:bb:
                    27:7d:b2:e9:33:79:e9:ee:ac:14:fa:21:ea:ee:ac:
                    6e:a5:be:58:e8:e2:bc:a3:8d:1e:66:13:e9:09:54:
                    5c:43:57:a5:28:43:36:9c:6e:39:bc:15:8e:de:85:
                    60:7b:10:3b:cc:26:0f:bb:67:3d:8b:43:17:b0:25:
                    4b:13:c7:ce:b7:94:43:bb:87:0a:2b:7e:a2:ac:b4:
                    30:01:16:05:64:85:64:84:18:37:0f:d6:22:18:0a:
                    01:52:d2:ee:99:a3:cd:52:c3:f6:ac:e9:60:06:df:
                    5f:50:4b:8d:8d:0a:d3:9f:4c:5e:e0:55:b5:26:0c:
                    15:da:f4:56:7e:8d:55:ac:35:9b:05:d2:b6:18:b2:
                    f5:0a:03:e1:22:3a:e8:5a:0a:0b:f7:f2:25:c4:8a:
                    04:4f
                Exponent: 65537 (0x10001)
        X509v3 extensions:
            X509v3 Basic Constraints: 
                CA:FALSE
            Netscape Comment: 
                OpenSSL Generated Certificate
            X509v3 Subject Key Identifier: 
                CD:A0:30:B2:40:74:A4:94:DC:73:6E:D3:AB:8C:1D:7D:07:53:9E:0A
            X509v3 Authority Key Identifier: 
                keyid:3F:C9:7B:87:87:91:D4:47:F6:CC:0B:21:65:06:FC:01:B2:BC:74:06

    Signature Algorithm: sha256WithRSAEncryption
         d8:ac:97:be:46:b3:e0:06:3a:4c:e2:ac:f9:ef:5d:07:f9:f4:
         85:71:0c:1c:61:ed:1a:6b:df:b2:a8:8b:0f:8d:ed:4d:25:9a:
         36:ab:fc:61:bc:03:bc:2a:26:df:d8:42:8c:9b:62:3b:df:bb:
         e1:6b:4e:4f:71:4b:b2:6b:df:02:b8:eb:9b:c7:aa:63:f3:64:
         7a:66:1f:f3:01:f5:74:75:16:fa:59:13:ca:10:bf:16:a1:ee:
         ca:0d:f0:99:32:08:7f:a5:c5:3c:38:4f:07:c3:58:9a:95:cc:
         5a:de:20:d8:e1:46:c4:5f:f4:1b:06:45:5b:97:43:95:a0:81:
         ec:50:7d:96:6a:57:60:f5:d3:6a:b6:5f:e8:72:b5:70:f4:33:
         ac:85:c0:6c:e0:9d:01:56:2c:ee:22:2b:2c:f6:f2:ba:03:9c:
         f1:b2:fb:08:f5:c5:ea:72:ae:35:e9:25:7f:89:7e:7b:f8:12:
         75:c6:c9:f0:10:07:89:33:87:cd:9e:7a:5a:3e:a2:f3:28:2a:
         04:3c:08:2d:3e:89:31:46:61:0c:54:88:90:b9:be:d4:26:70:
         c4:22:87:d5:24:07:3f:46:66:75:bf:a3:a6:3f:20:8f:4f:47:
         34:b8:06:d1:d6:f1:bb:07:54:38:6b:90:16:1d:ea:bb:d5:08:
         f3:c4:a8:16
-----BEGIN CERTIFICATE-----
MIIDeDCCAmCgAwIBAgIBAzANBgkqhkiG9w0BAQsFADBBMQswCQYDVQQGEwJGUjEO
MAwGA1UECAwFUGFyaXMxCzAJBgNVBAoMAk1BMRUwEwYDVQQDDAwxOTIuMTY4LjEu
NTgwHhcNMjAxMDE4MTUxMTQxWhcNMjExMDE4MTUxMTQxWjBBMQswCQYDVQQGEwJG
UjEOMAwGA1UECAwFUGFyaXMxCzAJBgNVBAoMAk1BMRUwEwYDVQQDDAwxOTIuMTY4
LjEuNDYwggEiMA0GCSqGSIb3DQEBAQUAA4IBDwAwggEKAoIBAQCmaJrgRFp62y9K
6nj6mUX839wvZhxJKL6KZt/Y+hyBgVeZLK0fw2uWWvYAO2F25WA+y9LiJP/opd0i
OqihDH1nr1ET0jQ7rs6cP2ch2BLklsYWbKPglEafwRKJOb796mIXdC65X+3Vuyd9
sukzeenurBT6IerurG6lvljo4ryjjR5mE+kJVFxDV6UoQzacbjm8FY7ehWB7EDvM
Jg+7Zz2LQxewJUsTx863lEO7hworfqKstDABFgVkhWSEGDcP1iIYCgFS0u6Zo81S
w/as6WAG319QS42NCtOfTF7gVbUmDBXa9FZ+jVWsNZsF0rYYsvUKA+EiOuhaCgv3
8iXEigRPAgMBAAGjezB5MAkGA1UdEwQCMAAwLAYJYIZIAYb4QgENBB8WHU9wZW5T
U0wgR2VuZXJhdGVkIENlcnRpZmljYXRlMB0GA1UdDgQWBBTNoDCyQHSklNxzbtOr
jB19B1OeCjAfBgNVHSMEGDAWgBQ/yXuHh5HUR/bMCyFlBvwBsrx0BjANBgkqhkiG
9w0BAQsFAAOCAQEA2KyXvkaz4AY6TOKs+e9dB/n0hXEMHGHtGmvfsqiLD43tTSWa
Nqv8YbwDvCom39hCjJtiO9+74WtOT3FLsmvfArjrm8eqY/NkemYf8wH1dHUW+lkT
yhC/FqHuyg3wmTIIf6XFPDhPB8NYmpXMWt4g2OFGxF/0GwZFW5dDlaCB7FB9lmpX
YPXTarZf6HK1cPQzrIXAbOCdAVYs7iIrLPbyugOc8bL7CPXF6nKuNeklf4l+e/gS
dcbJ8BAHiTOHzZ56Wj6i8ygqBDwILT6JMUZhDFSIkLm+1CZwxCKH1SQHP0Zmdb+j
pj8gj09HNLgG0dbxuwdUOGuQFh3qu9UI88SoFg==
-----END CERTIFICATE-----
