Certificate:
    Data:
        Version: 3 (0x2)
        Serial Number: 4 (0x4)
        Signature Algorithm: sha256WithRSAEncryption
        Issuer: C=FR, ST=Paris, O=MA, CN=192.168.1.58
        Validity
            Not Before: Oct 18 15:12:20 2020 GMT
            Not After : Oct 18 15:12:20 2021 GMT
        Subject: C=FR, ST=Paris, O=MA, CN=192.168.1.58
        Subject Public Key Info:
            Public Key Algorithm: rsaEncryption
                RSA Public-Key: (2048 bit)
                Modulus:
                    00:bf:fd:2d:c4:95:4b:fb:f6:b4:45:d5:a1:8c:c4:
                    ab:ef:34:99:e0:62:f2:4f:7c:42:c5:fd:54:05:3e:
                    c8:dc:3c:9a:f6:d9:78:74:50:58:21:b4:29:aa:c9:
                    32:f7:f1:74:79:e9:db:ee:71:fc:2a:6f:d9:1f:c6:
                    93:bd:f4:1a:15:1c:c8:87:2c:94:72:59:2d:8a:4f:
                    f3:cb:6f:e4:60:df:69:2f:e7:f8:f4:42:4f:06:5a:
                    33:64:50:34:c0:f6:b5:33:e4:32:b8:ba:8e:0b:2f:
                    42:d1:2c:2f:11:aa:72:5a:40:21:05:be:a7:7c:99:
                    b5:3b:45:1c:d2:46:32:cc:6f:a4:82:20:60:f1:21:
                    3c:2e:4f:ac:4f:5f:96:be:87:ed:70:77:67:e6:61:
                    55:f4:b0:47:1a:60:6a:1b:a7:6c:d7:64:95:05:a8:
                    a5:bf:aa:42:cb:29:75:03:e8:9f:c5:5f:1d:21:88:
                    7c:a0:eb:16:ac:af:df:3f:6c:d6:a6:af:6f:7e:bd:
                    75:86:66:2f:5d:df:19:0b:75:ac:3b:e4:e8:3f:f7:
                    48:75:38:99:b5:1e:89:44:1a:33:2c:cf:3f:5b:7d:
                    c5:c2:6e:f9:37:72:88:d1:ac:78:8d:69:68:e4:5f:
                    91:f1:82:34:d9:8b:bb:59:5a:56:ca:fb:ba:3c:cd:
                    e4:63
                Exponent: 65537 (0x10001)
        X509v3 extensions:
            X509v3 Basic Constraints: 
                CA:FALSE
            Netscape Comment: 
                OpenSSL Generated Certificate
            X509v3 Subject Key Identifier: 
                CC:87:CB:3E:68:6A:A2:38:25:1E:15:78:2F:5F:B1:93:E7:77:CB:F5
            X509v3 Authority Key Identifier: 
                keyid:3F:C9:7B:87:87:91:D4:47:F6:CC:0B:21:65:06:FC:01:B2:BC:74:06

    Signature Algorithm: sha256WithRSAEncryption
         bb:53:12:51:95:71:ae:ce:8e:5c:02:92:01:67:57:f4:1f:5e:
         0e:b6:f2:bc:86:ab:ef:48:99:2c:60:e3:5e:9f:f5:24:36:f2:
         cb:43:1c:d3:99:7c:87:9a:dc:e0:e7:d6:c9:22:e1:62:6e:43:
         35:82:e4:71:81:f0:0f:de:09:c5:cc:76:b0:ca:31:84:c4:dc:
         8a:46:04:f3:70:68:40:87:c4:d7:a7:4d:f3:0c:e4:ab:a5:3a:
         39:88:34:f8:9f:60:bc:16:68:03:c2:b4:54:76:f1:4a:12:b3:
         43:00:98:ff:0e:a4:8c:c0:6e:b3:ca:1c:7f:7c:31:81:4e:99:
         b5:ff:5a:2c:3a:ad:b7:db:f6:ae:22:12:b7:dc:80:10:de:26:
         16:9b:6e:1c:2e:7f:31:82:f0:e6:f9:d1:08:44:c8:c6:1a:4b:
         a7:95:ee:2e:51:a9:e5:9a:13:12:d9:74:7e:36:84:1b:3a:c1:
         0d:18:6c:88:b9:39:7c:7b:64:c1:c0:31:bd:59:21:9d:c1:72:
         9f:f9:8c:07:11:40:ac:f0:b6:58:0e:06:62:65:9d:1f:68:8b:
         a0:5c:94:59:4c:97:3b:bf:9e:22:56:30:4b:7b:d6:7a:a0:00:
         fd:08:70:f7:39:0b:ac:7b:0a:03:36:e4:83:28:c8:1f:7d:32:
         1c:46:b5:42
-----BEGIN CERTIFICATE-----
MIIDeDCCAmCgAwIBAgIBBDANBgkqhkiG9w0BAQsFADBBMQswCQYDVQQGEwJGUjEO
MAwGA1UECAwFUGFyaXMxCzAJBgNVBAoMAk1BMRUwEwYDVQQDDAwxOTIuMTY4LjEu
NTgwHhcNMjAxMDE4MTUxMjIwWhcNMjExMDE4MTUxMjIwWjBBMQswCQYDVQQGEwJG
UjEOMAwGA1UECAwFUGFyaXMxCzAJBgNVBAoMAk1BMRUwEwYDVQQDDAwxOTIuMTY4
LjEuNTgwggEiMA0GCSqGSIb3DQEBAQUAA4IBDwAwggEKAoIBAQC//S3ElUv79rRF
1aGMxKvvNJngYvJPfELF/VQFPsjcPJr22Xh0UFghtCmqyTL38XR56dvucfwqb9kf
xpO99BoVHMiHLJRyWS2KT/PLb+Rg32kv5/j0Qk8GWjNkUDTA9rUz5DK4uo4LL0LR
LC8RqnJaQCEFvqd8mbU7RRzSRjLMb6SCIGDxITwuT6xPX5a+h+1wd2fmYVX0sEca
YGobp2zXZJUFqKW/qkLLKXUD6J/FXx0hiHyg6xasr98/bNamr29+vXWGZi9d3xkL
daw75Og/90h1OJm1HolEGjMszz9bfcXCbvk3cojRrHiNaWjkX5HxgjTZi7tZWlbK
+7o8zeRjAgMBAAGjezB5MAkGA1UdEwQCMAAwLAYJYIZIAYb4QgENBB8WHU9wZW5T
U0wgR2VuZXJhdGVkIENlcnRpZmljYXRlMB0GA1UdDgQWBBTMh8s+aGqiOCUeFXgv
X7GT53fL9TAfBgNVHSMEGDAWgBQ/yXuHh5HUR/bMCyFlBvwBsrx0BjANBgkqhkiG
9w0BAQsFAAOCAQEAu1MSUZVxrs6OXAKSAWdX9B9eDrbyvIar70iZLGDjXp/1JDby
y0Mc05l8h5rc4OfWySLhYm5DNYLkcYHwD94Jxcx2sMoxhMTcikYE83BoQIfE16dN
8wzkq6U6OYg0+J9gvBZoA8K0VHbxShKzQwCY/w6kjMBus8ocf3wxgU6Ztf9aLDqt
t9v2riISt9yAEN4mFptuHC5/MYLw5vnRCETIxhpLp5XuLlGp5ZoTEtl0fjaEGzrB
DRhsiLk5fHtkwcAxvVkhncFyn/mMBxFArPC2WA4GYmWdH2iLoFyUWUyXO7+eIlYw
S3vWeqAA/Qhw9zkLrHsKAzbkgyjIH30yHEa1Qg==
-----END CERTIFICATE-----
