Certificate:
    Data:
        Version: 3 (0x2)
        Serial Number: 5 (0x5)
        Signature Algorithm: sha256WithRSAEncryption
        Issuer: C=FR, ST=Paris, O=MA, CN=192.168.1.58
        Validity
            Not Before: Oct 18 16:27:01 2020 GMT
            Not After : Oct 18 16:27:01 2021 GMT
        Subject: C=FR, ST=Paris, O=MA, CN=192.168.1.45
        Subject Public Key Info:
            Public Key Algorithm: rsaEncryption
                RSA Public-Key: (2048 bit)
                Modulus:
                    00:b8:7b:0f:fb:63:d6:c5:3f:fc:ec:3c:b2:48:b7:
                    d4:d0:b1:88:66:86:fc:59:8e:fb:fe:34:d9:ab:f8:
                    03:b7:97:93:b0:96:af:b6:2d:51:98:20:38:44:13:
                    b1:b5:b6:a8:64:c7:97:c5:3a:94:47:c2:4e:03:5c:
                    12:de:0a:f9:13:a3:d7:46:0c:e5:44:fb:99:7f:6a:
                    1f:44:fe:df:57:1a:d9:85:4d:30:90:97:19:12:50:
                    cc:0d:6c:9f:82:3f:94:74:3d:b8:22:f2:07:a2:87:
                    dd:3c:d2:ed:b3:f1:9f:00:df:f7:b9:c0:88:be:44:
                    b0:7f:e6:41:a0:48:5e:6d:99:ab:37:63:99:e1:8c:
                    4c:db:cd:5f:2c:c2:03:0d:c0:e8:66:ae:56:34:f3:
                    cb:e5:0e:60:7e:02:2a:46:a8:d4:0f:7c:5e:9c:2c:
                    96:7a:1a:20:b2:66:6c:50:1c:55:dd:fa:fd:2d:b6:
                    42:e6:a1:c3:f2:28:81:55:c7:01:1c:94:a1:ec:91:
                    8c:f5:87:81:c8:16:c3:78:b0:da:4f:bf:3b:7e:b9:
                    8b:72:96:20:55:b5:ca:b3:29:e5:96:99:dc:7d:66:
                    3e:c6:88:80:3c:9d:a8:d9:e6:e9:79:4e:5c:ab:1b:
                    c8:85:29:81:ee:e9:79:87:55:6a:53:09:f3:8c:f6:
                    b2:bf
                Exponent: 65537 (0x10001)
        X509v3 extensions:
            X509v3 Basic Constraints: 
                CA:FALSE
            Netscape Comment: 
                OpenSSL Generated Certificate
            X509v3 Subject Key Identifier: 
                FC:71:34:9F:65:2F:36:C7:8B:26:36:C0:E7:EA:3D:7E:16:6D:95:58
            X509v3 Authority Key Identifier: 
                keyid:3F:C9:7B:87:87:91:D4:47:F6:CC:0B:21:65:06:FC:01:B2:BC:74:06

    Signature Algorithm: sha256WithRSAEncryption
         6c:72:6f:c7:3d:5d:03:00:16:ac:36:cb:a2:ca:cf:8e:8a:ed:
         c2:ad:b8:87:ba:90:6a:00:6b:b0:20:bf:c7:1c:3d:09:14:e9:
         91:ad:52:ae:b9:8a:a2:bc:75:f7:73:12:e2:22:85:fd:14:52:
         db:3f:23:7f:c2:f3:01:be:62:cf:9e:97:e2:61:c5:05:88:67:
         b4:3b:92:f3:7b:11:7d:8b:ed:18:84:77:bd:7e:23:12:f5:b0:
         d3:b9:a8:c6:de:13:e1:86:94:44:64:f3:b9:42:4a:50:b1:1a:
         5a:67:d8:e9:5d:e6:27:4c:93:50:61:05:41:98:19:a2:dd:d7:
         ba:c3:c1:61:7b:46:2b:ac:96:70:63:1e:31:95:dd:11:30:df:
         8a:2b:8e:64:6e:5e:48:34:8d:19:ca:da:54:37:42:b1:5f:02:
         fc:59:87:c2:fa:77:9d:76:25:d1:0e:f6:60:08:6d:42:43:d8:
         a5:e1:13:e9:31:4f:67:fb:63:52:0f:34:2e:81:6f:10:45:5d:
         71:11:80:c5:28:a5:09:e0:55:ee:7d:49:b1:2c:7c:06:1f:9e:
         85:c3:ff:2a:7c:43:99:39:34:54:0d:69:9c:81:d7:21:90:b9:
         80:e0:f2:7c:cb:21:8a:c4:8d:96:b2:b6:be:87:21:2a:b7:a9:
         15:56:37:2d
-----BEGIN CERTIFICATE-----
MIIDeDCCAmCgAwIBAgIBBTANBgkqhkiG9w0BAQsFADBBMQswCQYDVQQGEwJGUjEO
MAwGA1UECAwFUGFyaXMxCzAJBgNVBAoMAk1BMRUwEwYDVQQDDAwxOTIuMTY4LjEu
NTgwHhcNMjAxMDE4MTYyNzAxWhcNMjExMDE4MTYyNzAxWjBBMQswCQYDVQQGEwJG
UjEOMAwGA1UECAwFUGFyaXMxCzAJBgNVBAoMAk1BMRUwEwYDVQQDDAwxOTIuMTY4
LjEuNDUwggEiMA0GCSqGSIb3DQEBAQUAA4IBDwAwggEKAoIBAQC4ew/7Y9bFP/zs
PLJIt9TQsYhmhvxZjvv+NNmr+AO3l5Owlq+2LVGYIDhEE7G1tqhkx5fFOpRHwk4D
XBLeCvkTo9dGDOVE+5l/ah9E/t9XGtmFTTCQlxkSUMwNbJ+CP5R0Pbgi8geih908
0u2z8Z8A3/e5wIi+RLB/5kGgSF5tmas3Y5nhjEzbzV8swgMNwOhmrlY088vlDmB+
AipGqNQPfF6cLJZ6GiCyZmxQHFXd+v0ttkLmocPyKIFVxwEclKHskYz1h4HIFsN4
sNpPvzt+uYtyliBVtcqzKeWWmdx9Zj7GiIA8najZ5ul5TlyrG8iFKYHu6XmHVWpT
CfOM9rK/AgMBAAGjezB5MAkGA1UdEwQCMAAwLAYJYIZIAYb4QgENBB8WHU9wZW5T
U0wgR2VuZXJhdGVkIENlcnRpZmljYXRlMB0GA1UdDgQWBBT8cTSfZS82x4smNsDn
6j1+Fm2VWDAfBgNVHSMEGDAWgBQ/yXuHh5HUR/bMCyFlBvwBsrx0BjANBgkqhkiG
9w0BAQsFAAOCAQEAbHJvxz1dAwAWrDbLosrPjortwq24h7qQagBrsCC/xxw9CRTp
ka1SrrmKorx193MS4iKF/RRS2z8jf8LzAb5iz56X4mHFBYhntDuS83sRfYvtGIR3
vX4jEvWw07moxt4T4YaURGTzuUJKULEaWmfY6V3mJ0yTUGEFQZgZot3XusPBYXtG
K6yWcGMeMZXdETDfiiuOZG5eSDSNGcraVDdCsV8C/FmHwvp3nXYl0Q72YAhtQkPY
peET6TFPZ/tjUg80LoFvEEVdcRGAxSilCeBV7n1JsSx8Bh+ehcP/KnxDmTk0VA1p
nIHXIZC5gODyfMshisSNlrK2vochKrepFVY3LQ==
-----END CERTIFICATE-----
