Certificate:
    Data:
        Version: 3 (0x2)
        Serial Number: 6 (0x6)
        Signature Algorithm: sha256WithRSAEncryption
        Issuer: C=FR, ST=Paris, O=MA, CN=192.168.1.58
        Validity
            Not Before: Oct 18 16:27:38 2020 GMT
            Not After : Oct 18 16:27:38 2021 GMT
        Subject: C=FR, ST=Paris, O=MA, CN=192.168.1.48
        Subject Public Key Info:
            Public Key Algorithm: rsaEncryption
                RSA Public-Key: (2048 bit)
                Modulus:
                    00:db:3b:65:18:07:6e:09:9a:ba:04:b7:f5:80:7b:
                    30:66:05:dd:d7:19:ef:68:af:b2:74:bb:66:a9:1d:
                    81:4e:83:45:0b:68:97:b7:19:6e:98:bd:a4:06:03:
                    7b:2b:63:cc:d3:d8:73:14:1e:6d:dc:cb:f6:ab:1d:
                    91:40:87:34:61:09:be:e0:f8:e1:5a:87:e3:53:a8:
                    d5:df:55:2e:74:40:98:51:f1:15:1d:2c:d1:49:09:
                    8d:8f:62:72:c8:63:ee:3f:2a:02:2d:42:62:9a:b3:
                    e3:56:8c:82:55:fd:fe:65:39:42:c6:60:3b:4f:59:
                    c1:6b:78:03:42:f6:f9:0d:3a:64:79:86:a7:15:4b:
                    ad:6f:cb:69:b5:fc:69:29:b6:2f:0c:97:db:ac:ef:
                    5b:b8:44:92:00:0b:db:91:e3:e4:59:4f:0f:73:76:
                    cb:6f:b3:43:23:4b:c7:03:91:dd:7d:fe:69:cb:29:
                    fe:82:ea:cd:39:a5:6f:dd:c6:40:37:7b:a0:3b:bb:
                    4a:ac:0a:11:bf:7c:8e:cc:f9:a2:03:5f:cd:4e:77:
                    4e:95:55:89:72:93:89:8f:af:01:e7:00:f7:13:b9:
                    07:08:41:c2:2b:06:14:38:62:a2:1c:c3:92:84:ae:
                    b6:c3:2b:aa:e1:93:88:55:91:b6:9f:3e:b4:ce:fc:
                    1d:23
                Exponent: 65537 (0x10001)
        X509v3 extensions:
            X509v3 Basic Constraints: 
                CA:FALSE
            Netscape Comment: 
                OpenSSL Generated Certificate
            X509v3 Subject Key Identifier: 
                EE:97:6F:81:2A:7B:DE:0F:82:87:71:9A:18:95:A9:52:4D:57:05:78
            X509v3 Authority Key Identifier: 
                keyid:3F:C9:7B:87:87:91:D4:47:F6:CC:0B:21:65:06:FC:01:B2:BC:74:06

    Signature Algorithm: sha256WithRSAEncryption
         88:9e:e7:b2:68:95:aa:42:d0:ba:13:8e:60:fc:25:ba:80:34:
         06:bf:3f:be:67:39:c8:7b:12:60:cc:84:59:6c:69:e5:b6:37:
         ef:96:d0:c2:2d:3b:6d:39:73:38:69:a6:46:5f:3e:1d:ae:42:
         55:2b:30:ed:90:94:a0:3d:bd:02:e7:b0:04:08:16:ac:84:37:
         7e:79:b3:aa:f3:4f:d9:5c:2d:84:13:24:99:ec:e4:99:cc:28:
         e5:d0:8c:ad:d9:cd:4f:f3:76:bc:f3:c7:a1:88:c4:80:fe:f2:
         ba:9b:f9:da:45:93:62:38:dc:67:8c:4b:89:99:16:4c:54:54:
         ca:8d:d8:c5:5e:05:13:da:a1:df:88:99:b8:32:62:93:a5:5d:
         0d:fa:18:cc:a4:f2:97:a5:18:80:7e:27:c8:31:02:4c:7b:d3:
         d4:73:21:e8:ce:a5:51:0b:31:21:6a:27:0e:0f:05:b1:f6:63:
         72:61:ca:a8:ce:e4:03:5e:cb:65:9b:35:ef:06:33:b4:b6:bb:
         81:7b:da:09:d1:7e:6a:1b:6c:5d:0c:a7:7d:27:ad:f7:94:6a:
         5a:f8:86:2d:ac:79:8c:3f:2c:be:c0:9e:7e:1c:8d:a7:1a:a1:
         90:52:3f:e8:89:d2:56:7d:a0:26:d5:ad:89:21:e8:d3:2d:1b:
         e8:14:1b:a5
-----BEGIN CERTIFICATE-----
MIIDeDCCAmCgAwIBAgIBBjANBgkqhkiG9w0BAQsFADBBMQswCQYDVQQGEwJGUjEO
MAwGA1UECAwFUGFyaXMxCzAJBgNVBAoMAk1BMRUwEwYDVQQDDAwxOTIuMTY4LjEu
NTgwHhcNMjAxMDE4MTYyNzM4WhcNMjExMDE4MTYyNzM4WjBBMQswCQYDVQQGEwJG
UjEOMAwGA1UECAwFUGFyaXMxCzAJBgNVBAoMAk1BMRUwEwYDVQQDDAwxOTIuMTY4
LjEuNDgwggEiMA0GCSqGSIb3DQEBAQUAA4IBDwAwggEKAoIBAQDbO2UYB24JmroE
t/WAezBmBd3XGe9or7J0u2apHYFOg0ULaJe3GW6YvaQGA3srY8zT2HMUHm3cy/ar
HZFAhzRhCb7g+OFah+NTqNXfVS50QJhR8RUdLNFJCY2PYnLIY+4/KgItQmKas+NW
jIJV/f5lOULGYDtPWcFreANC9vkNOmR5hqcVS61vy2m1/Gkpti8Ml9us71u4RJIA
C9uR4+RZTw9zdstvs0MjS8cDkd19/mnLKf6C6s05pW/dxkA3e6A7u0qsChG/fI7M
+aIDX81Od06VVYlyk4mPrwHnAPcTuQcIQcIrBhQ4YqIcw5KErrbDK6rhk4hVkbaf
PrTO/B0jAgMBAAGjezB5MAkGA1UdEwQCMAAwLAYJYIZIAYb4QgENBB8WHU9wZW5T
U0wgR2VuZXJhdGVkIENlcnRpZmljYXRlMB0GA1UdDgQWBBTul2+BKnveD4KHcZoY
lalSTVcFeDAfBgNVHSMEGDAWgBQ/yXuHh5HUR/bMCyFlBvwBsrx0BjANBgkqhkiG
9w0BAQsFAAOCAQEAiJ7nsmiVqkLQuhOOYPwluoA0Br8/vmc5yHsSYMyEWWxp5bY3
75bQwi07bTlzOGmmRl8+Ha5CVSsw7ZCUoD29AuewBAgWrIQ3fnmzqvNP2VwthBMk
mezkmcwo5dCMrdnNT/N2vPPHoYjEgP7yupv52kWTYjjcZ4xLiZkWTFRUyo3YxV4F
E9qh34iZuDJik6VdDfoYzKTyl6UYgH4nyDECTHvT1HMh6M6lUQsxIWonDg8FsfZj
cmHKqM7kA17LZZs17wYztLa7gXvaCdF+ahtsXQynfSet95RqWviGLax5jD8svsCe
fhyNpxqhkFI/6InSVn2gJtWtiSHo0y0b6BQbpQ==
-----END CERTIFICATE-----
