Certificate:
    Data:
        Version: 3 (0x2)
        Serial Number: 9 (0x9)
        Signature Algorithm: sha256WithRSAEncryption
        Issuer: C=FR, ST=Paris, O=MA, CN=192.168.1.58
        Validity
            Not Before: Oct 18 16:51:38 2020 GMT
            Not After : Oct 18 16:51:38 2021 GMT
        Subject: C=FR, ST=Paris, O=MA, CN=relay-sd
        Subject Public Key Info:
            Public Key Algorithm: rsaEncryption
                RSA Public-Key: (2048 bit)
                Modulus:
                    00:e8:8f:82:09:81:d4:a8:d3:54:64:d7:ed:dc:b3:
                    8f:88:95:9e:76:4d:93:2d:b3:b2:b0:4e:ee:51:f9:
                    3d:c0:d0:dd:aa:7f:ef:a8:1d:44:23:23:97:02:e4:
                    d7:ef:0f:2a:7e:43:a7:c0:0f:d1:f0:47:36:85:6d:
                    50:46:d3:2d:4c:d2:70:94:e7:1c:29:38:be:02:bf:
                    5f:dd:8f:a6:db:b4:ce:87:51:bb:b5:47:29:36:c0:
                    81:b7:48:4c:4c:3e:14:ae:3a:d3:8b:d9:bd:cf:cd:
                    ae:fc:36:05:ed:9f:c9:12:7c:7e:64:b5:88:87:a4:
                    b8:61:55:4e:6c:03:80:bd:66:c4:ae:58:36:77:e7:
                    de:09:1c:19:4b:7e:b3:9c:ef:99:b8:7c:f8:05:03:
                    38:fa:4a:f5:fa:cf:53:5a:58:40:ba:bc:4b:8a:f9:
                    67:3f:a1:b8:fd:27:e9:76:b0:5e:d8:07:b0:ba:f8:
                    6c:3c:a9:19:72:1c:d7:aa:82:41:4c:c6:0d:62:15:
                    9a:a3:08:0d:c9:e3:9e:c1:c3:a6:d0:f3:12:be:3e:
                    0c:d4:21:3b:e0:36:a1:90:26:bd:30:d5:dd:36:74:
                    a7:7f:be:73:f3:70:a7:17:92:be:31:1b:06:7a:a0:
                    2d:43:1c:55:47:a3:6f:47:b9:56:f3:05:84:1a:ad:
                    7d:c9
                Exponent: 65537 (0x10001)
        X509v3 extensions:
            X509v3 Basic Constraints: 
                CA:FALSE
            Netscape Comment: 
                OpenSSL Generated Certificate
            X509v3 Subject Key Identifier: 
                85:93:4D:ED:34:3C:6B:7B:02:66:CE:55:E8:AE:B5:0D:37:DD:5D:E2
            X509v3 Authority Key Identifier: 
                keyid:3F:C9:7B:87:87:91:D4:47:F6:CC:0B:21:65:06:FC:01:B2:BC:74:06

    Signature Algorithm: sha256WithRSAEncryption
         d7:43:80:b9:c6:80:52:4b:e1:0e:d9:8b:f6:f0:e2:89:e5:c4:
         aa:3f:74:cf:c2:ab:d9:93:ee:63:2c:5f:dd:c8:13:46:7d:fd:
         e3:e9:17:0f:d7:58:17:be:e4:47:a9:04:b3:74:74:2d:28:eb:
         12:87:f4:34:46:a5:18:69:e6:b4:0a:00:89:89:44:1b:0a:4f:
         64:e4:18:70:8f:b5:51:0d:11:c5:15:95:8c:be:3a:6c:dd:17:
         e5:66:bb:f7:4c:94:b0:e2:04:2c:0e:f1:6d:0f:8b:39:85:8a:
         40:5d:9f:9a:05:4d:e4:86:f4:73:12:32:d2:26:69:ef:a7:67:
         da:1e:a0:f8:13:57:fd:68:9c:7e:99:14:b1:1d:d7:69:e4:85:
         f6:b1:08:20:3e:aa:73:dc:4d:fc:c0:10:3b:84:08:b1:c1:6f:
         46:e9:ce:78:b8:4f:32:ab:27:28:21:a8:68:b2:6b:9e:68:0a:
         5e:f7:58:0a:04:d0:12:59:0d:22:26:fe:6f:16:e0:1f:03:1c:
         2a:cd:8a:a2:38:76:7e:42:3e:25:63:46:6b:31:02:bf:7d:28:
         2f:bd:00:84:96:c0:c5:e8:32:63:5c:21:63:45:0d:69:19:da:
         06:4b:b6:a4:e7:d6:85:46:cd:17:2c:77:75:cd:f8:27:26:e8:
         9a:d3:c4:10
-----BEGIN CERTIFICATE-----
MIIDdDCCAlygAwIBAgIBCTANBgkqhkiG9w0BAQsFADBBMQswCQYDVQQGEwJGUjEO
MAwGA1UECAwFUGFyaXMxCzAJBgNVBAoMAk1BMRUwEwYDVQQDDAwxOTIuMTY4LjEu
NTgwHhcNMjAxMDE4MTY1MTM4WhcNMjExMDE4MTY1MTM4WjA9MQswCQYDVQQGEwJG
UjEOMAwGA1UECAwFUGFyaXMxCzAJBgNVBAoMAk1BMREwDwYDVQQDDAhyZWxheS1z
ZDCCASIwDQYJKoZIhvcNAQEBBQADggEPADCCAQoCggEBAOiPggmB1KjTVGTX7dyz
j4iVnnZNky2zsrBO7lH5PcDQ3ap/76gdRCMjlwLk1+8PKn5Dp8AP0fBHNoVtUEbT
LUzScJTnHCk4vgK/X92Pptu0zodRu7VHKTbAgbdITEw+FK4604vZvc/Nrvw2Be2f
yRJ8fmS1iIekuGFVTmwDgL1mxK5YNnfn3gkcGUt+s5zvmbh8+AUDOPpK9frPU1pY
QLq8S4r5Zz+huP0n6XawXtgHsLr4bDypGXIc16qCQUzGDWIVmqMIDcnjnsHDptDz
Er4+DNQhO+A2oZAmvTDV3TZ0p3++c/NwpxeSvjEbBnqgLUMcVUejb0e5VvMFhBqt
fckCAwEAAaN7MHkwCQYDVR0TBAIwADAsBglghkgBhvhCAQ0EHxYdT3BlblNTTCBH
ZW5lcmF0ZWQgQ2VydGlmaWNhdGUwHQYDVR0OBBYEFIWTTe00PGt7AmbOVeiutQ03
3V3iMB8GA1UdIwQYMBaAFD/Je4eHkdRH9swLIWUG/AGyvHQGMA0GCSqGSIb3DQEB
CwUAA4IBAQDXQ4C5xoBSS+EO2Yv28OKJ5cSqP3TPwqvZk+5jLF/dyBNGff3j6RcP
11gXvuRHqQSzdHQtKOsSh/Q0RqUYaea0CgCJiUQbCk9k5Bhwj7VRDRHFFZWMvjps
3RflZrv3TJSw4gQsDvFtD4s5hYpAXZ+aBU3khvRzEjLSJmnvp2faHqD4E1f9aJx+
mRSxHddp5IX2sQggPqpz3E38wBA7hAixwW9G6c54uE8yqycoIahosmueaApe91gK
BNASWQ0iJv5vFuAfAxwqzYqiOHZ+Qj4lY0ZrMQK/fSgvvQCElsDF6DJjXCFjRQ1p
GdoGS7ak59aFRs0XLHd1zfgnJuia08QQ
-----END CERTIFICATE-----
