Certificate:
    Data:
        Version: 3 (0x2)
        Serial Number: 10 (0xa)
        Signature Algorithm: sha256WithRSAEncryption
        Issuer: C=FR, ST=Paris, O=MA, CN=192.168.1.58
        Validity
            Not Before: Oct 18 16:52:16 2020 GMT
            Not After : Oct 18 16:52:16 2021 GMT
        Subject: C=FR, ST=Paris, O=MA, CN=relay-sp
        Subject Public Key Info:
            Public Key Algorithm: rsaEncryption
                RSA Public-Key: (2048 bit)
                Modulus:
                    00:fa:5f:e6:74:9d:3f:ed:bb:80:e3:43:ed:3a:39:
                    c6:44:7f:10:a0:bd:1f:94:dc:e1:45:cf:ca:39:e2:
                    12:c8:ba:a8:b6:fb:c8:84:36:15:70:f4:67:99:5c:
                    32:5c:a7:8b:2c:ba:0b:da:3b:52:8e:32:d0:02:64:
                    51:d6:f2:4d:63:33:34:67:54:db:7a:1e:70:38:d1:
                    53:1e:91:86:b6:f5:c9:7e:6e:a7:1f:28:7e:14:1a:
                    33:b6:60:13:52:17:3d:f4:59:a5:06:f0:a8:ce:13:
                    17:39:34:32:8f:b9:f7:e5:98:82:c7:c3:5d:a7:b2:
                    65:ff:1d:9e:ed:d5:f7:41:0d:b1:fe:fe:d7:5e:ae:
                    bd:9d:04:75:f5:ca:af:e8:49:eb:35:1c:d5:a3:22:
                    9c:0e:7c:39:bc:8e:83:92:c8:b3:e2:90:3b:1a:44:
                    12:e7:3f:24:79:50:57:df:9d:f0:25:7b:4a:4c:82:
                    95:62:9e:9e:95:82:d3:a2:59:66:33:df:bb:da:fb:
                    e8:9c:45:98:8a:cb:cd:2c:fd:22:15:11:bf:96:8b:
                    b5:98:61:27:60:ab:2c:3c:ea:3c:a9:c5:4a:d5:ea:
                    e4:70:a7:89:fe:3b:7b:f4:82:98:31:bb:3d:39:9b:
                    89:c3:d1:69:91:be:6f:73:f2:c7:11:a6:b6:75:96:
                    07:01
                Exponent: 65537 (0x10001)
        X509v3 extensions:
            X509v3 Basic Constraints: 
                CA:FALSE
            Netscape Comment: 
                OpenSSL Generated Certificate
            X509v3 Subject Key Identifier: 
                F7:E6:09:21:DA:7A:42:31:5A:48:75:24:AD:95:0B:3F:A4:EF:06:53
            X509v3 Authority Key Identifier: 
                keyid:3F:C9:7B:87:87:91:D4:47:F6:CC:0B:21:65:06:FC:01:B2:BC:74:06

    Signature Algorithm: sha256WithRSAEncryption
         35:ab:ab:e0:0c:e9:5e:e3:b4:55:84:db:20:d2:d7:57:2a:c7:
         19:66:85:94:8f:23:b5:23:56:b4:b2:4d:09:71:25:e8:23:e8:
         45:b3:41:a3:1c:a2:6f:55:18:9a:c3:a9:f2:60:36:24:cb:8a:
         78:b4:2c:4a:0d:3a:67:01:92:9b:88:4a:d5:2f:14:1f:ae:53:
         fb:36:74:a0:bd:a0:c3:a3:63:c8:82:cf:2b:47:5a:3e:59:36:
         79:96:15:1e:77:5f:b2:51:34:48:a9:e3:cc:59:9a:d5:4a:aa:
         fa:49:20:68:21:07:25:d1:b6:12:9e:31:2d:bf:43:ec:fc:4f:
         bb:26:ee:47:ec:3e:b1:30:23:8f:3a:6f:0f:0e:4c:7f:fb:7f:
         7a:1d:2f:a5:64:9c:cc:7f:72:2c:1e:0e:00:26:c1:8b:a8:2c:
         60:46:f3:de:e2:ef:3a:3c:40:35:a9:7b:54:67:cd:c8:96:eb:
         4a:1a:6a:93:25:6e:66:d1:5b:57:95:6f:f7:e8:f1:52:70:0e:
         69:9c:86:c5:99:0d:3a:d9:fb:88:75:cc:a0:f5:46:18:58:fd:
         2d:e0:a0:db:59:b3:14:73:68:d5:59:89:f7:9b:89:a7:a0:9d:
         7d:60:43:a9:53:7e:9d:e8:ab:a0:e5:e2:f7:5c:6f:60:7a:1b:
         99:41:9f:07
-----BEGIN CERTIFICATE-----
MIIDdDCCAlygAwIBAgIBCjANBgkqhkiG9w0BAQsFADBBMQswCQYDVQQGEwJGUjEO
MAwGA1UECAwFUGFyaXMxCzAJBgNVBAoMAk1BMRUwEwYDVQQDDAwxOTIuMTY4LjEu
NTgwHhcNMjAxMDE4MTY1MjE2WhcNMjExMDE4MTY1MjE2WjA9MQswCQYDVQQGEwJG
UjEOMAwGA1UECAwFUGFyaXMxCzAJBgNVBAoMAk1BMREwDwYDVQQDDAhyZWxheS1z
cDCCASIwDQYJKoZIhvcNAQEBBQADggEPADCCAQoCggEBAPpf5nSdP+27gOND7To5
xkR/EKC9H5Tc4UXPyjniEsi6qLb7yIQ2FXD0Z5lcMlyniyy6C9o7Uo4y0AJkUdby
TWMzNGdU23oecDjRUx6Rhrb1yX5upx8ofhQaM7ZgE1IXPfRZpQbwqM4TFzk0Mo+5
9+WYgsfDXaeyZf8dnu3V90ENsf7+116uvZ0EdfXKr+hJ6zUc1aMinA58ObyOg5LI
s+KQOxpEEuc/JHlQV9+d8CV7SkyClWKenpWC06JZZjPfu9r76JxFmIrLzSz9IhUR
v5aLtZhhJ2CrLDzqPKnFStXq5HCnif47e/SCmDG7PTmbicPRaZG+b3PyxxGmtnWW
BwECAwEAAaN7MHkwCQYDVR0TBAIwADAsBglghkgBhvhCAQ0EHxYdT3BlblNTTCBH
ZW5lcmF0ZWQgQ2VydGlmaWNhdGUwHQYDVR0OBBYEFPfmCSHaekIxWkh1JK2VCz+k
7wZTMB8GA1UdIwQYMBaAFD/Je4eHkdRH9swLIWUG/AGyvHQGMA0GCSqGSIb3DQEB
CwUAA4IBAQA1q6vgDOle47RVhNsg0tdXKscZZoWUjyO1I1a0sk0JcSXoI+hFs0Gj
HKJvVRiaw6nyYDYky4p4tCxKDTpnAZKbiErVLxQfrlP7NnSgvaDDo2PIgs8rR1o+
WTZ5lhUed1+yUTRIqePMWZrVSqr6SSBoIQcl0bYSnjEtv0Ps/E+7Ju5H7D6xMCOP
Om8PDkx/+396HS+lZJzMf3IsHg4AJsGLqCxgRvPe4u86PEA1qXtUZ83IlutKGmqT
JW5m0VtXlW/36PFScA5pnIbFmQ062fuIdcyg9UYYWP0t4KDbWbMUc2jVWYn3m4mn
oJ19YEOpU36d6Kug5eL3XG9gehuZQZ8H
-----END CERTIFICATE-----
