Certificate:
    Data:
        Version: 3 (0x2)
        Serial Number: 12 (0xc)
        Signature Algorithm: sha256WithRSAEncryption
        Issuer: C=FR, ST=Paris, O=MA, CN=192.168.1.58
        Validity
            Not Before: Oct 18 16:53:51 2020 GMT
            Not After : Oct 18 16:53:51 2021 GMT
        Subject: C=FR, ST=Paris, O=MA, CN=relay-sm
        Subject Public Key Info:
            Public Key Algorithm: rsaEncryption
                RSA Public-Key: (2048 bit)
                Modulus:
                    00:de:25:5b:e5:a6:ea:ce:de:55:f3:3a:17:0e:ac:
                    4d:ca:54:d1:ea:81:0f:58:0c:a7:4d:0b:66:30:2f:
                    aa:62:c0:a6:cf:ab:00:d5:0d:b0:cf:da:43:69:0c:
                    bc:c4:ef:48:49:a2:94:84:6c:b9:85:5c:40:23:22:
                    16:1a:02:0c:1c:b1:6e:47:f2:d3:cf:6d:55:ef:68:
                    bd:8c:75:eb:f4:dd:0a:ee:8a:7a:0f:55:66:f9:1d:
                    49:6a:d4:d8:bb:a1:38:73:2e:be:80:f9:ed:d2:c2:
                    6c:1d:e0:cc:be:7e:11:b8:94:40:0e:67:34:1f:b8:
                    1a:c2:3c:fd:ed:5b:8c:d1:ed:91:f0:a3:2d:d9:ee:
                    b1:ce:c9:b4:b6:22:bd:53:08:60:97:01:88:23:81:
                    da:66:30:1c:66:8e:74:ed:b7:47:b1:86:6f:33:03:
                    9c:08:79:17:66:ef:2d:1a:de:50:a3:2d:80:16:73:
                    00:0c:5a:73:f1:88:4a:77:c8:4f:f1:c6:cf:d4:4d:
                    94:b1:68:c0:cd:83:25:70:55:77:34:2a:7e:c4:19:
                    db:6e:98:29:6b:de:ef:71:83:08:ca:f4:7a:6c:0b:
                    a3:07:75:d7:8f:7d:18:77:0c:a0:4b:6b:d0:14:97:
                    d7:27:64:37:46:8a:a7:36:75:7f:b1:93:c9:5f:82:
                    e9:03
                Exponent: 65537 (0x10001)
        X509v3 extensions:
            X509v3 Basic Constraints: 
                CA:FALSE
            Netscape Comment: 
                OpenSSL Generated Certificate
            X509v3 Subject Key Identifier: 
                0A:23:38:DE:EE:0D:92:66:6B:21:FA:CC:AA:1A:AC:E4:57:8C:BA:14
            X509v3 Authority Key Identifier: 
                keyid:3F:C9:7B:87:87:91:D4:47:F6:CC:0B:21:65:06:FC:01:B2:BC:74:06

    Signature Algorithm: sha256WithRSAEncryption
         61:37:a3:5a:3b:ea:f1:a8:40:d7:94:89:b5:d0:9c:3e:d0:45:
         94:64:51:66:b5:77:1d:88:3e:8e:88:bd:72:d6:df:9c:d6:b3:
         19:2e:2d:a4:5e:60:e1:54:20:fc:43:e4:0a:42:63:d7:72:35:
         25:82:0a:51:49:91:5b:67:67:36:bf:ff:4e:af:ef:8d:80:af:
         f8:25:ed:26:3c:27:3a:51:43:7f:61:44:af:12:8a:d0:e2:b1:
         f2:5b:47:fe:c3:e1:56:1d:ba:c1:95:db:b6:a5:e2:57:07:29:
         42:05:29:95:ee:23:7d:35:68:58:c0:44:58:31:02:af:20:80:
         df:76:24:4e:8d:9c:72:04:3f:bc:44:65:52:90:de:b8:ae:98:
         0b:66:81:aa:5d:bf:21:4b:1a:55:c2:ee:a3:d7:9e:7a:2c:7a:
         bb:dd:92:39:94:fe:25:01:e4:80:8b:b6:b2:93:4f:04:84:62:
         ea:5a:e4:0d:1f:3f:65:05:78:41:6c:8b:aa:44:92:5b:d0:52:
         14:aa:12:c5:86:e5:fa:73:ea:8a:5d:af:87:d2:aa:28:c0:50:
         2e:8d:70:36:9b:bd:5b:60:d3:49:34:24:bc:f0:20:8d:9d:67:
         dd:12:87:15:a2:48:18:cf:60:09:9e:71:8a:55:29:ab:24:c7:
         25:96:ab:d2
-----BEGIN CERTIFICATE-----
MIIDdDCCAlygAwIBAgIBDDANBgkqhkiG9w0BAQsFADBBMQswCQYDVQQGEwJGUjEO
MAwGA1UECAwFUGFyaXMxCzAJBgNVBAoMAk1BMRUwEwYDVQQDDAwxOTIuMTY4LjEu
NTgwHhcNMjAxMDE4MTY1MzUxWhcNMjExMDE4MTY1MzUxWjA9MQswCQYDVQQGEwJG
UjEOMAwGA1UECAwFUGFyaXMxCzAJBgNVBAoMAk1BMREwDwYDVQQDDAhyZWxheS1z
bTCCASIwDQYJKoZIhvcNAQEBBQADggEPADCCAQoCggEBAN4lW+Wm6s7eVfM6Fw6s
TcpU0eqBD1gMp00LZjAvqmLAps+rANUNsM/aQ2kMvMTvSEmilIRsuYVcQCMiFhoC
DByxbkfy089tVe9ovYx16/TdCu6Keg9VZvkdSWrU2LuhOHMuvoD57dLCbB3gzL5+
EbiUQA5nNB+4GsI8/e1bjNHtkfCjLdnusc7JtLYivVMIYJcBiCOB2mYwHGaOdO23
R7GGbzMDnAh5F2bvLRreUKMtgBZzAAxac/GISnfIT/HGz9RNlLFowM2DJXBVdzQq
fsQZ226YKWve73GDCMr0emwLowd11499GHcMoEtr0BSX1ydkN0aKpzZ1f7GTyV+C
6QMCAwEAAaN7MHkwCQYDVR0TBAIwADAsBglghkgBhvhCAQ0EHxYdT3BlblNTTCBH
ZW5lcmF0ZWQgQ2VydGlmaWNhdGUwHQYDVR0OBBYEFAojON7uDZJmayH6zKoarORX
jLoUMB8GA1UdIwQYMBaAFD/Je4eHkdRH9swLIWUG/AGyvHQGMA0GCSqGSIb3DQEB
CwUAA4IBAQBhN6NaO+rxqEDXlIm10Jw+0EWUZFFmtXcdiD6OiL1y1t+c1rMZLi2k
XmDhVCD8Q+QKQmPXcjUlggpRSZFbZ2c2v/9Or++NgK/4Je0mPCc6UUN/YUSvEorQ
4rHyW0f+w+FWHbrBldu2peJXBylCBSmV7iN9NWhYwERYMQKvIIDfdiROjZxyBD+8
RGVSkN64rpgLZoGqXb8hSxpVwu6j1556LHq73ZI5lP4lAeSAi7ayk08EhGLqWuQN
Hz9lBXhBbIuqRJJb0FIUqhLFhuX6c+qKXa+H0qoowFAujXA2m71bYNNJNCS88CCN
nWfdEocVokgYz2AJnnGKVSmrJMcllqvS
-----END CERTIFICATE-----
